target datalayout = "e-m:e-p270:32:32-p271:32:32-p272:64:64-i64:64-i128:128-f80:128-n8:16:32:64-S128"
target triple = "x86_64-pc-linux-gnu"

; Function Attrs: mustprogress nounwind uwtable
define linkonce_odr hidden noundef float @_ZNSt3__16__math5frexpB8ne190000EfPi(float noundef %0, ptr noundef %1) #1 comdat {
  %3 = alloca float, align 4
  %4 = alloca ptr, align 8
  store float %0, ptr %3, align 4
  store ptr %1, ptr %4, align 8
  %5 = load float, ptr %3, align 4
  %6 = load ptr, ptr %4, align 8
  %7 = call { float, i32 } @llvm.frexp.f32.i32(float %5)
  %8 = extractvalue { float, i32 } %7, 1
  store i32 %8, ptr %6, align 4
  %9 = extractvalue { float, i32 } %7, 0
  ret float %9
}

; Function Attrs: mustprogress nounwind uwtable
define dso_local void @_Z21stbiw__linear_to_rgbePhPf(ptr noundef %0, ptr noundef %1) #1 {
  %3 = alloca ptr, align 8
  %4 = alloca ptr, align 8
  %5 = alloca i32, align 4
  %6 = alloca float, align 4
  %7 = alloca float, align 4
  store ptr %0, ptr %3, align 8
  store ptr %1, ptr %4, align 8
  %8 = load ptr, ptr %4, align 8
  %9 = getelementptr inbounds float, ptr %8, i64 0
  %10 = load float, ptr %9, align 4
  %11 = load ptr, ptr %4, align 8
  %12 = getelementptr inbounds float, ptr %11, i64 1
  %13 = load float, ptr %12, align 4
  %14 = load ptr, ptr %4, align 8
  %15 = getelementptr inbounds float, ptr %14, i64 2
  %16 = load float, ptr %15, align 4
  %17 = fcmp ogt float %13, %16
  br i1 %17, label %18, label %22

18:                                               ; preds = %2
  %19 = load ptr, ptr %4, align 8
  %20 = getelementptr inbounds float, ptr %19, i64 1
  %21 = load float, ptr %20, align 4
  br label %26

22:                                               ; preds = %2
  %23 = load ptr, ptr %4, align 8
  %24 = getelementptr inbounds float, ptr %23, i64 2
  %25 = load float, ptr %24, align 4
  br label %26

26:                                               ; preds = %22, %18
  %27 = phi float [ %21, %18 ], [ %25, %22 ]
  %28 = fcmp ogt float %10, %27
  br i1 %28, label %29, label %33

29:                                               ; preds = %26
  %30 = load ptr, ptr %4, align 8
  %31 = getelementptr inbounds float, ptr %30, i64 0
  %32 = load float, ptr %31, align 4
  br label %51

33:                                               ; preds = %26
  %34 = load ptr, ptr %4, align 8
  %35 = getelementptr inbounds float, ptr %34, i64 1
  %36 = load float, ptr %35, align 4
  %37 = load ptr, ptr %4, align 8
  %38 = getelementptr inbounds float, ptr %37, i64 2
  %39 = load float, ptr %38, align 4
  %40 = fcmp ogt float %36, %39
  br i1 %40, label %41, label %45

41:                                               ; preds = %33
  %42 = load ptr, ptr %4, align 8
  %43 = getelementptr inbounds float, ptr %42, i64 1
  %44 = load float, ptr %43, align 4
  br label %49

45:                                               ; preds = %33
  %46 = load ptr, ptr %4, align 8
  %47 = getelementptr inbounds float, ptr %46, i64 2
  %48 = load float, ptr %47, align 4
  br label %49

49:                                               ; preds = %45, %41
  %50 = phi float [ %44, %41 ], [ %48, %45 ]
  br label %51

51:                                               ; preds = %49, %29
  %52 = phi float [ %32, %29 ], [ %50, %49 ]
  store float %52, ptr %6, align 4
  %53 = load float, ptr %6, align 4
  %54 = fcmp olt float %53, 0x3949F623E0000000
  br i1 %54, label %55, label %64

55:                                               ; preds = %51
  %56 = load ptr, ptr %3, align 8
  %57 = getelementptr inbounds i8, ptr %56, i64 3
  store i8 0, ptr %57, align 1
  %58 = load ptr, ptr %3, align 8
  %59 = getelementptr inbounds i8, ptr %58, i64 2
  store i8 0, ptr %59, align 1
  %60 = load ptr, ptr %3, align 8
  %61 = getelementptr inbounds i8, ptr %60, i64 1
  store i8 0, ptr %61, align 1
  %62 = load ptr, ptr %3, align 8
  %63 = getelementptr inbounds i8, ptr %62, i64 0
  store i8 0, ptr %63, align 1
  br label %99

64:                                               ; preds = %51
  %65 = load float, ptr %6, align 4
  %66 = call noundef float @_ZNSt3__16__math5frexpB8ne190000EfPi(float noundef %65, ptr noundef %5) #18
  %67 = fmul float %66, 2.560000e+02
  %68 = load float, ptr %6, align 4
  %69 = fdiv float %67, %68
  store float %69, ptr %7, align 4
  %70 = load ptr, ptr %4, align 8
  %71 = getelementptr inbounds float, ptr %70, i64 0
  %72 = load float, ptr %71, align 4
  %73 = load float, ptr %7, align 4
  %74 = fmul float %72, %73
  %75 = fptoui float %74 to i8
  %76 = load ptr, ptr %3, align 8
  %77 = getelementptr inbounds i8, ptr %76, i64 0
  store i8 %75, ptr %77, align 1
  %78 = load ptr, ptr %4, align 8
  %79 = getelementptr inbounds float, ptr %78, i64 1
  %80 = load float, ptr %79, align 4
  %81 = load float, ptr %7, align 4
  %82 = fmul float %80, %81
  %83 = fptoui float %82 to i8
  %84 = load ptr, ptr %3, align 8
  %85 = getelementptr inbounds i8, ptr %84, i64 1
  store i8 %83, ptr %85, align 1
  %86 = load ptr, ptr %4, align 8
  %87 = getelementptr inbounds float, ptr %86, i64 2
  %88 = load float, ptr %87, align 4
  %89 = load float, ptr %7, align 4
  %90 = fmul float %88, %89
  %91 = fptoui float %90 to i8
  %92 = load ptr, ptr %3, align 8
  %93 = getelementptr inbounds i8, ptr %92, i64 2
  store i8 %91, ptr %93, align 1
  %94 = load i32, ptr %5, align 4
  %95 = add nsw i32 %94, 128
  %96 = trunc i32 %95 to i8
  %97 = load ptr, ptr %3, align 8
  %98 = getelementptr inbounds i8, ptr %97, i64 3
  store i8 %96, ptr %98, align 1
  br label %99

99:                                               ; preds = %64, %55
  ret void
}