; Function Attrs: mustprogress nofree norecurse nosync nounwind willreturn memory(argmem: readwrite) uwtable
define dso_local void @_Z21stbiw__linear_to_rgbePhPf(ptr nocapture noundef writeonly %0, ptr nocapture noundef readonly %1) local_unnamed_addr #4 {
  %3 = load float, ptr %1, align 4
  %4 = getelementptr inbounds i8, ptr %1, i64 4
  %5 = load float, ptr %4, align 4
  %6 = getelementptr inbounds i8, ptr %1, i64 8
  %7 = load float, ptr %6, align 4
  %8 = fcmp ogt float %5, %7
  %. = select i1 %8, float %5, float %7
  %9 = fcmp ogt float %3, %.
  %10 = select i1 %9, float %3, float %.
  %11 = fcmp olt float %10, 0x3949F623E0000000
  br i1 %11, label %12, label %14

12:                                               ; preds = %2
  %13 = getelementptr inbounds i8, ptr %0, i64 1
  store i8 0, ptr %13, align 1
  store i8 0, ptr %0, align 1
  br label %31

14:                                               ; preds = %2
  %15 = tail call { float, i32 } @llvm.frexp.f32.i32(float %10)
  %16 = extractvalue { float, i32 } %15, 1
  %17 = extractvalue { float, i32 } %15, 0
  %18 = fmul float %17, 2.560000e+02
  %19 = fdiv float %18, %10
  %20 = fmul float %3, %19
  %21 = fptoui float %20 to i8
  store i8 %21, ptr %0, align 1
  %22 = load float, ptr %4, align 4
  %23 = fmul float %19, %22
  %24 = fptoui float %23 to i8
  %25 = getelementptr inbounds i8, ptr %0, i64 1
  store i8 %24, ptr %25, align 1
  %26 = load float, ptr %6, align 4
  %27 = fmul float %19, %26
  %28 = fptoui float %27 to i8
  %29 = trunc i32 %16 to i8
  %30 = xor i8 %29, -128
  br label %31

31:                                               ; preds = %14, %12
  %.sink32 = phi i8 [ 0, %12 ], [ %30, %14 ]
  %.sink = phi i8 [ 0, %12 ], [ %28, %14 ]
  %32 = getelementptr inbounds i8, ptr %0, i64 3
  store i8 %.sink32, ptr %32, align 1
  %33 = getelementptr inbounds i8, ptr %0, i64 2
  store i8 %.sink, ptr %33, align 1
  ret void
}